; Function Attrs: mustprogress uwtable
define void @_ZN4LIEF2PE6ExportC2ERKS1_(ptr noundef nonnull align 8 dereferenceable(80) %0, ptr noundef nonnull align 8 dereferenceable(80) %1) unnamed_addr #3 align 2 personality ptr @__gxx_personality_v0 {
  tail call void @_ZN4LIEF6ObjectC2ERKS0_(ptr noundef nonnull align 8 dereferenceable(8) %0, ptr noundef nonnull align 8 dereferenceable(8) %1)
  store ptr getelementptr inbounds ({ [7 x ptr] }, ptr @_ZTVN4LIEF2PE6ExportE, i64 0, i32 0, i64 2), ptr %0, align 8
  %3 = getelementptr inbounds i8, ptr %0, i64 8
  %4 = getelementptr inbounds i8, ptr %1, i64 8
  tail call void @llvm.memcpy.p0.p0.i64(ptr noundef nonnull align 8 dereferenceable(16) %3, ptr noundef nonnull align 8 dereferenceable(16) %4, i64 16, i1 false)
  %5 = getelementptr inbounds i8, ptr %0, i64 24
  %6 = getelementptr inbounds i8, ptr %1, i64 24
  invoke void @_ZNSt6vectorIN4LIEF2PE11ExportEntryESaIS2_EEC2ERKS4_(ptr noundef nonnull align 8 dereferenceable(24) %5, ptr noundef nonnull align 8 dereferenceable(24) %6)
          to label %7 unwind label %11

7:                                                ; preds = %2
  %8 = getelementptr inbounds i8, ptr %0, i64 48
  %9 = getelementptr inbounds i8, ptr %1, i64 48
  invoke void @_ZNSt7__cxx1112basic_stringIcSt11char_traitsIcESaIcEEC1ERKS4_(ptr noundef nonnull align 8 dereferenceable(32) %8, ptr noundef nonnull align 8 dereferenceable(32) %9)
          to label %10 unwind label %13

10:                                               ; preds = %7
  ret void

11:                                               ; preds = %2
  %12 = landingpad { ptr, i32 }
          cleanup
  br label %15

13:                                               ; preds = %7
  %14 = landingpad { ptr, i32 }
          cleanup
  tail call void @_ZNSt6vectorIN4LIEF2PE11ExportEntryESaIS2_EED2Ev(ptr noundef nonnull align 8 dereferenceable(24) %5) #10
  br label %15

15:                                               ; preds = %13, %11
  %.pn = phi { ptr, i32 } [ %14, %13 ], [ %12, %11 ]
  tail call void @_ZN4LIEF6ObjectD2Ev(ptr noundef nonnull align 8 dereferenceable(8) %0) #10
  resume { ptr, i32 } %.pn
}